; Function Attrs: mustprogress nofree norecurse nosync nounwind memory(readwrite, inaccessiblemem: none) uwtable
define void @_ZN7b2World16SetAllowSleepingEb(ptr noundef nonnull align 8 captures(none) dereferenceable(103284) %this, i1 noundef zeroext %flag) local_unnamed_addr #9 align 2 {
entry:
  %m_allowSleep = getelementptr inbounds nuw i8, ptr %this, i64 103216
  %0 = load i8, ptr %m_allowSleep, align 8
  %1 = trunc i8 %0 to i1
  %2 = xor i1 %flag, %1
  br i1 %2, label %if.end, label %if.end13

if.end:                                           ; preds = %entry
  %frombool = zext i1 %flag to i8
  store i8 %frombool, ptr %m_allowSleep, align 8
  %m_bodyList = getelementptr inbounds nuw i8, ptr %this, i64 103184
  %b.04 = load ptr, ptr %m_bodyList, align 8
  %tobool12.not5 = icmp eq ptr %b.04, null
  %or.cond = select i1 %flag, i1 true, i1 %tobool12.not5
  br i1 %or.cond, label %if.end13, label %for.body

for.body:                                         ; preds = %if.end, %_ZN6b2Body8SetAwakeEb.exit
  %b.06 = phi ptr [ %b.0, %_ZN6b2Body8SetAwakeEb.exit ], [ %b.04, %if.end ]
  %3 = load i32, ptr %b.06, align 8
  %cmp.i = icmp eq i32 %3, 0
  br i1 %cmp.i, label %_ZN6b2Body8SetAwakeEb.exit, label %if.end.i

if.end.i:                                         ; preds = %for.body
  %m_flags.i = getelementptr inbounds nuw i8, ptr %b.06, i64 4
  %4 = load i16, ptr %m_flags.i, align 4
  %m_sleepTime.i = getelementptr inbounds nuw i8, ptr %b.06, i64 172
  %5 = or i16 %4, 2
  store i16 %5, ptr %m_flags.i, align 4
  store float 0.000000e+00, ptr %m_sleepTime.i, align 4
  br label %_ZN6b2Body8SetAwakeEb.exit

_ZN6b2Body8SetAwakeEb.exit:                       ; preds = %for.body, %if.end.i
  %m_next = getelementptr inbounds nuw i8, ptr %b.06, i64 104
  %b.0 = load ptr, ptr %m_next, align 8
  %tobool12.not = icmp eq ptr %b.0, null
  br i1 %tobool12.not, label %if.end13, label %for.body, !llvm.loop !12

if.end13:                                         ; preds = %_ZN6b2Body8SetAwakeEb.exit, %entry, %if.end
  ret void
}